target datalayout = "e-m:e-p270:32:32-p271:32:32-p272:64:64-i64:64-i128:128-f80:128-n8:16:32:64-S128"
target triple = "x86_64-pc-linux-gnu"

%"class.boost::json::storage_ptr" = type { i64 }
%"class.boost::json::monotonic_resource" = type { %"class.boost::container::pmr::memory_resource", %"struct.boost::json::monotonic_resource::block_base", ptr, i64, %"class.boost::json::storage_ptr" }
%"class.boost::container::pmr::memory_resource" = type { ptr }
%"struct.boost::json::monotonic_resource::block_base" = type { ptr, i64, i64, ptr }

; Function Attrs: noinline noreturn nounwind uwtable
define linkonce_odr hidden void @__clang_call_terminate(ptr noundef %0) #3 comdat {
  %2 = call ptr @__cxa_begin_catch(ptr %0) #10
  call void @_ZSt9terminatev() #34
  unreachable
}

; Function Attrs: inlinehint mustprogress nounwind uwtable
define linkonce_odr hidden noundef i64 @_ZN5boost4json18monotonic_resource8max_sizeEv() #1 comdat align 2 {
  ret i64 -33
}

; Function Attrs: mustprogress nounwind uwtable
define linkonce_odr hidden noundef i64 @_ZN5boost4json6detail8exchangeImiEET_RS3_T0_(ptr noundef nonnull align 8 dereferenceable(8) %0, i32 noundef %1) #2 comdat {
  %3 = alloca ptr, align 8
  %4 = alloca i32, align 4
  %5 = alloca i64, align 8
  store ptr %0, ptr %3, align 8, !tbaa !3
  store i32 %1, ptr %4, align 4, !tbaa !7
  call void @llvm.lifetime.start.p0(i64 8, ptr %5) #10
  %6 = load ptr, ptr %3, align 8, !tbaa !3
  %7 = load i64, ptr %6, align 8, !tbaa !16
  store i64 %7, ptr %5, align 8, !tbaa !16
  %8 = load i32, ptr %4, align 4, !tbaa !7
  %9 = sext i32 %8 to i64
  %10 = load ptr, ptr %3, align 8, !tbaa !3
  store i64 %9, ptr %10, align 8, !tbaa !16
  %11 = load i64, ptr %5, align 8, !tbaa !16
  call void @llvm.lifetime.end.p0(i64 8, ptr %5) #10
  ret i64 %11
}

; Function Attrs: inlinehint mustprogress nounwind uwtable
define linkonce_odr hidden noundef i64 @_ZN5boost4json18monotonic_resource9next_pow2Em(i64 noundef %0) #1 comdat align 2 personality ptr @__gxx_personality_v0 {
  %2 = alloca i64, align 8
  %3 = alloca i64, align 8
  store i64 %0, ptr %2, align 8, !tbaa !16
  call void @llvm.lifetime.start.p0(i64 8, ptr %3) #10
  store i64 1024, ptr %3, align 8, !tbaa !16
  br label %4

4:                                                ; preds = %18, %1
  %5 = load i64, ptr %3, align 8, !tbaa !16
  %6 = load i64, ptr %2, align 8, !tbaa !16
  %7 = icmp ule i64 %5, %6
  br i1 %7, label %8, label %21

8:                                                ; preds = %4
  %9 = load i64, ptr %3, align 8, !tbaa !16
  %10 = invoke noundef i64 @_ZN5boost4json18monotonic_resource8max_sizeEv()
          to label %11 unwind label %23

11:                                               ; preds = %8
  %12 = load i64, ptr %3, align 8, !tbaa !16
  %13 = sub i64 %10, %12
  %14 = icmp uge i64 %9, %13
  br i1 %14, label %15, label %18

15:                                               ; preds = %11
  %16 = invoke noundef i64 @_ZN5boost4json18monotonic_resource8max_sizeEv()
          to label %17 unwind label %23

17:                                               ; preds = %15
  store i64 %16, ptr %3, align 8, !tbaa !16
  br label %21

18:                                               ; preds = %11
  %19 = load i64, ptr %3, align 8, !tbaa !16
  %20 = mul i64 %19, 2
  store i64 %20, ptr %3, align 8, !tbaa !16
  br label %4, !llvm.loop !82

21:                                               ; preds = %17, %4
  %22 = load i64, ptr %3, align 8, !tbaa !16
  call void @llvm.lifetime.end.p0(i64 8, ptr %3) #10
  ret i64 %22

23:                                               ; preds = %15, %8
  %24 = landingpad { ptr, i32 }
          catch ptr null
  %25 = extractvalue { ptr, i32 } %24, 0
  call void @__clang_call_terminate(ptr %25) #34
  unreachable
}

; Function Attrs: mustprogress nounwind uwtable
define linkonce_odr hidden void @_ZN5boost4json11storage_ptrC2EOS1_(ptr noundef nonnull align 8 dereferenceable(8) %0, ptr noundef nonnull align 8 dereferenceable(8) %1) unnamed_addr #2 comdat align 2 {
  %3 = alloca ptr, align 8
  %4 = alloca ptr, align 8
  store ptr %0, ptr %3, align 8, !tbaa !3
  store ptr %1, ptr %4, align 8, !tbaa !3
  %5 = load ptr, ptr %3, align 8
  %6 = getelementptr inbounds nuw %"class.boost::json::storage_ptr", ptr %5, i32 0, i32 0
  %7 = load ptr, ptr %4, align 8, !tbaa !3
  %8 = getelementptr inbounds nuw %"class.boost::json::storage_ptr", ptr %7, i32 0, i32 0
  %9 = call noundef i64 @_ZN5boost4json6detail8exchangeImiEET_RS3_T0_(ptr noundef nonnull align 8 dereferenceable(8) %8, i32 noundef 0) #10
  store i64 %9, ptr %6, align 8, !tbaa !35
  ret void
}

; Function Attrs: inlinehint mustprogress nounwind uwtable
define linkonce_odr hidden noundef i64 @_ZN5boost4json18monotonic_resource10round_pow2Em(i64 noundef %0) #1 comdat align 2 {
  %2 = alloca i64, align 8
  %3 = alloca i64, align 8
  store i64 %0, ptr %3, align 8, !tbaa !16
  %4 = load i64, ptr %3, align 8, !tbaa !16
  %5 = load i64, ptr %3, align 8, !tbaa !16
  %6 = sub i64 %5, 1
  %7 = and i64 %4, %6
  %8 = icmp ne i64 %7, 0
  br i1 %8, label %9, label %12

9:                                                ; preds = %1
  %10 = load i64, ptr %3, align 8, !tbaa !16
  %11 = call noundef i64 @_ZN5boost4json18monotonic_resource9next_pow2Em(i64 noundef %10) #10
  store i64 %11, ptr %2, align 8
  br label %14

12:                                               ; preds = %1
  %13 = load i64, ptr %3, align 8, !tbaa !16
  store i64 %13, ptr %2, align 8
  br label %14

14:                                               ; preds = %12, %9
  %15 = load i64, ptr %2, align 8
  ret i64 %15
}

; Function Attrs: inlinehint mustprogress nounwind uwtable
define linkonce_odr hidden void @_ZN5boost9container3pmr15memory_resourceC2Ev(ptr noundef nonnull align 8 dereferenceable(8) %0) unnamed_addr #1 comdat align 2 {
  %2 = alloca ptr, align 8
  store ptr %0, ptr %2, align 8, !tbaa !3
  %3 = load ptr, ptr %2, align 8
  store ptr getelementptr inbounds inrange(-16, 40) ({ [7 x ptr] }, ptr @_ZTVN5boost9container3pmr15memory_resourceE, i32 0, i32 0, i32 2), ptr %3, align 8, !tbaa !14
  ret void
}

; Function Attrs: mustprogress nounwind uwtable
define void @_ZN5boost4json18monotonic_resourceC2EmNS0_11storage_ptrE(ptr noundef nonnull align 8 dereferenceable(64) %0, i64 noundef %1, ptr noundef %2) unnamed_addr #2 align 2 {
  %4 = alloca ptr, align 8
  %5 = alloca i64, align 8
  %6 = alloca ptr, align 8
  store ptr %0, ptr %4, align 8, !tbaa !3
  store i64 %1, ptr %5, align 8, !tbaa !16
  store ptr %2, ptr %6, align 8, !tbaa !3
  %7 = load ptr, ptr %4, align 8
  call void @_ZN5boost9container3pmr15memory_resourceC2Ev(ptr noundef nonnull align 8 dereferenceable(8) %7) #10
  store ptr getelementptr inbounds inrange(-16, 40) ({ [7 x ptr] }, ptr @_ZTVN5boost4json18monotonic_resourceE, i32 0, i32 0, i32 2), ptr %7, align 8, !tbaa !14
  %8 = getelementptr inbounds nuw %"class.boost::json::monotonic_resource", ptr %7, i32 0, i32 1
  call void @llvm.memset.p0.i64(ptr align 8 %8, i8 0, i64 32, i1 false)
  %9 = getelementptr inbounds nuw %"class.boost::json::monotonic_resource", ptr %7, i32 0, i32 2
  %10 = getelementptr inbounds nuw %"class.boost::json::monotonic_resource", ptr %7, i32 0, i32 1
  store ptr %10, ptr %9, align 8, !tbaa !69
  %11 = getelementptr inbounds nuw %"class.boost::json::monotonic_resource", ptr %7, i32 0, i32 3
  %12 = load i64, ptr %5, align 8, !tbaa !16
  %13 = call noundef i64 @_ZN5boost4json18monotonic_resource10round_pow2Em(i64 noundef %12) #10
  store i64 %13, ptr %11, align 8, !tbaa !79
  %14 = getelementptr inbounds nuw %"class.boost::json::monotonic_resource", ptr %7, i32 0, i32 4
  call void @_ZN5boost4json11storage_ptrC2EOS1_(ptr noundef nonnull align 8 dereferenceable(8) %14, ptr noundef nonnull align 8 dereferenceable(8) %2) #10
  ret void
}