; Function Attrs: mustprogress nofree norecurse nosync nounwind memory(argmem: readwrite) uwtable
define void @_ZN5boost4json18monotonic_resourceC2EmNS0_11storage_ptrE(ptr noundef nonnull align 8 dereferenceable(64) %0, i64 noundef %1, ptr nocapture noundef %2) unnamed_addr #11 align 2 personality ptr @__gxx_personality_v0 {
  store ptr getelementptr inbounds inrange(-16, 40) (i8, ptr @_ZTVN5boost4json18monotonic_resourceE, i64 16), ptr %0, align 8, !tbaa !19
  %4 = getelementptr inbounds nuw i8, ptr %0, i64 8
  tail call void @llvm.memset.p0.i64(ptr noundef nonnull align 8 dereferenceable(32) %4, i8 0, i64 32, i1 false)
  %5 = getelementptr inbounds nuw i8, ptr %0, i64 40
  store ptr %4, ptr %5, align 8, !tbaa !88
  %6 = tail call range(i64 0, 65) i64 @llvm.ctpop.i64(i64 %1)
  %.not.i = icmp samesign ult i64 %6, 2
  br i1 %.not.i, label %_ZN5boost4json18monotonic_resource10round_pow2Em.exit, label %7

7:                                                ; preds = %3
  %.not7.i.i = icmp ult i64 %1, 1024
  br i1 %.not7.i.i, label %_ZN5boost4json18monotonic_resource10round_pow2Em.exit, label %.lr.ph.i.i

.lr.ph.i.i:                                       ; preds = %7, %9
  %.08.i.i = phi i64 [ %10, %9 ], [ 1024, %7 ]
  %8 = sub nuw nsw i64 -33, %.08.i.i
  %.not6.i.i = icmp ult i64 %.08.i.i, %8
  br i1 %.not6.i.i, label %9, label %_ZN5boost4json18monotonic_resource10round_pow2Em.exit

9:                                                ; preds = %.lr.ph.i.i
  %10 = shl i64 %.08.i.i, 1
  %.not.i.i = icmp ugt i64 %10, %1
  br i1 %.not.i.i, label %_ZN5boost4json18monotonic_resource10round_pow2Em.exit, label %.lr.ph.i.i, !llvm.loop !97

_ZN5boost4json18monotonic_resource10round_pow2Em.exit: ; preds = %.lr.ph.i.i, %9, %3, %7
  %.0.i = phi i64 [ %1, %3 ], [ 1024, %7 ], [ -33, %.lr.ph.i.i ], [ %10, %9 ]
  %11 = getelementptr inbounds nuw i8, ptr %0, i64 48
  store i64 %.0.i, ptr %11, align 8, !tbaa !98
  %12 = getelementptr inbounds nuw i8, ptr %0, i64 56
  %13 = load i64, ptr %2, align 8, !tbaa !11
  store i64 0, ptr %2, align 8, !tbaa !11
  store i64 %13, ptr %12, align 8, !tbaa !17
  ret void
}